; Function Attrs: mustprogress nofree norecurse nosync nounwind willreturn memory(argmem: write) uwtable
define void @_ZN7rocksdb11FileIndexerC2EPKNS_10ComparatorE(ptr noundef nonnull align 8 dereferenceable(192) initializes((0, 24)) %0, ptr noundef %1) unnamed_addr #3 align 2 {
  store i64 0, ptr %0, align 8, !tbaa !11
  %3 = getelementptr inbounds nuw i8, ptr %0, i64 8
  store ptr %1, ptr %3, align 8, !tbaa !22
  %4 = getelementptr inbounds nuw i8, ptr %0, i64 16
  store i64 0, ptr %4, align 8, !tbaa !23
  %5 = getelementptr inbounds nuw i8, ptr %0, i64 152
  %6 = getelementptr inbounds nuw i8, ptr %0, i64 24
  store ptr %6, ptr %5, align 8, !tbaa !24
  %7 = getelementptr inbounds nuw i8, ptr %0, i64 160
  tail call void @llvm.memset.p0.i64(ptr noundef nonnull align 8 dereferenceable(32) %7, i8 0, i64 32, i1 false)
  ret void
}